target datalayout = "e-m:e-p270:32:32-p271:32:32-p272:64:64-i64:64-i128:128-f80:128-n8:16:32:64-S128"
target triple = "x86_64-pc-linux-gnu"

%struct.SN_env = type { ptr, i32, i32, i32, i32, i32, ptr, ptr }

@s_94 = internal constant [4 x i8] c"\CE\B7\CE\BA", align 1
@s_95 = internal constant [4 x i8] c"\CE\B7\CE\BA", align 1

; Function Attrs: nounwind uwtable
define internal i32 @r_step5g(ptr noundef %0) #0 {
  %2 = alloca i32, align 4
  %3 = alloca ptr, align 8
  %4 = alloca i32, align 4
  %5 = alloca i32, align 4
  %6 = alloca i32, align 4
  %7 = alloca i32, align 4
  %8 = alloca i32, align 4
  %9 = alloca i32, align 4
  %10 = alloca i32, align 4
  store ptr %0, ptr %3, align 8
  call void @llvm.lifetime.start.p0(i64 4, ptr %4) #3
  %11 = load ptr, ptr %3, align 8
  %12 = getelementptr inbounds nuw %struct.SN_env, ptr %11, i32 0, i32 2
  %13 = load i32, ptr %12, align 4
  %14 = load ptr, ptr %3, align 8
  %15 = getelementptr inbounds nuw %struct.SN_env, ptr %14, i32 0, i32 1
  %16 = load i32, ptr %15, align 8
  %17 = sub i32 %13, %16
  store i32 %17, ptr %4, align 4
  %18 = load ptr, ptr %3, align 8
  %19 = getelementptr inbounds nuw %struct.SN_env, ptr %18, i32 0, i32 1
  %20 = load i32, ptr %19, align 8
  %21 = load ptr, ptr %3, align 8
  %22 = getelementptr inbounds nuw %struct.SN_env, ptr %21, i32 0, i32 5
  store i32 %20, ptr %22, align 8
  %23 = load ptr, ptr %3, align 8
  %24 = call i32 @find_among_b(ptr noundef %23, ptr noundef @a_47, i32 noundef 3)
  %25 = icmp ne i32 %24, 0
  br i1 %25, label %27, label %26

26:                                               ; preds = %1
  br label %47

27:                                               ; preds = %1
  %28 = load ptr, ptr %3, align 8
  %29 = getelementptr inbounds nuw %struct.SN_env, ptr %28, i32 0, i32 1
  %30 = load i32, ptr %29, align 8
  %31 = load ptr, ptr %3, align 8
  %32 = getelementptr inbounds nuw %struct.SN_env, ptr %31, i32 0, i32 4
  store i32 %30, ptr %32, align 4
  call void @llvm.lifetime.start.p0(i64 4, ptr %5) #3
  %33 = load ptr, ptr %3, align 8
  %34 = call i32 @slice_del(ptr noundef %33)
  store i32 %34, ptr %5, align 4
  %35 = load i32, ptr %5, align 4
  %36 = icmp slt i32 %35, 0
  br i1 %36, label %37, label %39

37:                                               ; preds = %27
  %38 = load i32, ptr %5, align 4
  store i32 %38, ptr %2, align 4
  store i32 1, ptr %6, align 4
  br label %40

39:                                               ; preds = %27
  store i32 0, ptr %6, align 4
  br label %40

40:                                               ; preds = %39, %37
  call void @llvm.lifetime.end.p0(i64 4, ptr %5) #3
  %41 = load i32, ptr %6, align 4
  switch i32 %41, label %55 [
    i32 0, label %42
  ]

42:                                               ; preds = %40
  %43 = load ptr, ptr %3, align 8
  %44 = getelementptr inbounds nuw %struct.SN_env, ptr %43, i32 0, i32 7
  %45 = load ptr, ptr %44, align 8
  %46 = getelementptr inbounds i32, ptr %45, i64 0
  store i32 0, ptr %46, align 4
  br label %47

47:                                               ; preds = %42, %26
  %48 = load ptr, ptr %3, align 8
  %49 = getelementptr inbounds nuw %struct.SN_env, ptr %48, i32 0, i32 2
  %50 = load i32, ptr %49, align 4
  %51 = load i32, ptr %4, align 4
  %52 = sub i32 %50, %51
  %53 = load ptr, ptr %3, align 8
  %54 = getelementptr inbounds nuw %struct.SN_env, ptr %53, i32 0, i32 1
  store i32 %52, ptr %54, align 8
  store i32 0, ptr %6, align 4
  br label %55

55:                                               ; preds = %47, %40
  call void @llvm.lifetime.end.p0(i64 4, ptr %4) #3
  %56 = load i32, ptr %6, align 4
  switch i32 %56, label %190 [
    i32 0, label %57
    i32 1, label %188
  ]

57:                                               ; preds = %55
  %58 = load ptr, ptr %3, align 8
  %59 = getelementptr inbounds nuw %struct.SN_env, ptr %58, i32 0, i32 1
  %60 = load i32, ptr %59, align 8
  %61 = load ptr, ptr %3, align 8
  %62 = getelementptr inbounds nuw %struct.SN_env, ptr %61, i32 0, i32 5
  store i32 %60, ptr %62, align 8
  %63 = load ptr, ptr %3, align 8
  %64 = call i32 @find_among_b(ptr noundef %63, ptr noundef @a_50, i32 noundef 3)
  %65 = icmp ne i32 %64, 0
  br i1 %65, label %67, label %66

66:                                               ; preds = %57
  store i32 0, ptr %2, align 4
  br label %188

67:                                               ; preds = %57
  %68 = load ptr, ptr %3, align 8
  %69 = getelementptr inbounds nuw %struct.SN_env, ptr %68, i32 0, i32 1
  %70 = load i32, ptr %69, align 8
  %71 = load ptr, ptr %3, align 8
  %72 = getelementptr inbounds nuw %struct.SN_env, ptr %71, i32 0, i32 4
  store i32 %70, ptr %72, align 4
  call void @llvm.lifetime.start.p0(i64 4, ptr %7) #3
  %73 = load ptr, ptr %3, align 8
  %74 = call i32 @slice_del(ptr noundef %73)
  store i32 %74, ptr %7, align 4
  %75 = load i32, ptr %7, align 4
  %76 = icmp slt i32 %75, 0
  br i1 %76, label %77, label %79

77:                                               ; preds = %67
  %78 = load i32, ptr %7, align 4
  store i32 %78, ptr %2, align 4
  store i32 1, ptr %6, align 4
  br label %80

79:                                               ; preds = %67
  store i32 0, ptr %6, align 4
  br label %80

80:                                               ; preds = %79, %77
  call void @llvm.lifetime.end.p0(i64 4, ptr %7) #3
  %81 = load i32, ptr %6, align 4
  switch i32 %81, label %190 [
    i32 0, label %82
    i32 1, label %188
  ]

82:                                               ; preds = %80
  %83 = load ptr, ptr %3, align 8
  %84 = getelementptr inbounds nuw %struct.SN_env, ptr %83, i32 0, i32 7
  %85 = load ptr, ptr %84, align 8
  %86 = getelementptr inbounds i32, ptr %85, i64 0
  store i32 0, ptr %86, align 4
  call void @llvm.lifetime.start.p0(i64 4, ptr %8) #3
  %87 = load ptr, ptr %3, align 8
  %88 = getelementptr inbounds nuw %struct.SN_env, ptr %87, i32 0, i32 2
  %89 = load i32, ptr %88, align 4
  %90 = load ptr, ptr %3, align 8
  %91 = getelementptr inbounds nuw %struct.SN_env, ptr %90, i32 0, i32 1
  %92 = load i32, ptr %91, align 8
  %93 = sub i32 %89, %92
  store i32 %93, ptr %8, align 4
  %94 = load ptr, ptr %3, align 8
  %95 = getelementptr inbounds nuw %struct.SN_env, ptr %94, i32 0, i32 1
  %96 = load i32, ptr %95, align 8
  %97 = load ptr, ptr %3, align 8
  %98 = getelementptr inbounds nuw %struct.SN_env, ptr %97, i32 0, i32 5
  store i32 %96, ptr %98, align 8
  %99 = load ptr, ptr %3, align 8
  %100 = getelementptr inbounds nuw %struct.SN_env, ptr %99, i32 0, i32 1
  %101 = load i32, ptr %100, align 8
  %102 = load ptr, ptr %3, align 8
  %103 = getelementptr inbounds nuw %struct.SN_env, ptr %102, i32 0, i32 4
  store i32 %101, ptr %103, align 4
  %104 = load ptr, ptr %3, align 8
  %105 = call i32 @find_among_b(ptr noundef %104, ptr noundef @a_48, i32 noundef 6)
  %106 = icmp ne i32 %105, 0
  br i1 %106, label %108, label %107

107:                                              ; preds = %82
  br label %119

108:                                              ; preds = %82
  call void @llvm.lifetime.start.p0(i64 4, ptr %9) #3
  %109 = load ptr, ptr %3, align 8
  %110 = call i32 @slice_from_s(ptr noundef %109, i32 noundef 4, ptr noundef @s_94)
  store i32 %110, ptr %9, align 4
  %111 = load i32, ptr %9, align 4
  %112 = icmp slt i32 %111, 0
  br i1 %112, label %113, label %115

113:                                              ; preds = %108
  %114 = load i32, ptr %9, align 4
  store i32 %114, ptr %2, align 4
  store i32 1, ptr %6, align 4
  br label %116

115:                                              ; preds = %108
  store i32 0, ptr %6, align 4
  br label %116

116:                                              ; preds = %115, %113
  call void @llvm.lifetime.end.p0(i64 4, ptr %9) #3
  %117 = load i32, ptr %6, align 4
  switch i32 %117, label %184 [
    i32 0, label %118
  ]

118:                                              ; preds = %116
  store i32 4, ptr %6, align 4
  br label %184

119:                                              ; preds = %107
  %120 = load ptr, ptr %3, align 8
  %121 = getelementptr inbounds nuw %struct.SN_env, ptr %120, i32 0, i32 2
  %122 = load i32, ptr %121, align 4
  %123 = load i32, ptr %8, align 4
  %124 = sub i32 %122, %123
  %125 = load ptr, ptr %3, align 8
  %126 = getelementptr inbounds nuw %struct.SN_env, ptr %125, i32 0, i32 1
  store i32 %124, ptr %126, align 8
  %127 = load ptr, ptr %3, align 8
  %128 = getelementptr inbounds nuw %struct.SN_env, ptr %127, i32 0, i32 1
  %129 = load i32, ptr %128, align 8
  %130 = load ptr, ptr %3, align 8
  %131 = getelementptr inbounds nuw %struct.SN_env, ptr %130, i32 0, i32 5
  store i32 %129, ptr %131, align 8
  %132 = load ptr, ptr %3, align 8
  %133 = getelementptr inbounds nuw %struct.SN_env, ptr %132, i32 0, i32 1
  %134 = load i32, ptr %133, align 8
  %135 = load ptr, ptr %3, align 8
  %136 = getelementptr inbounds nuw %struct.SN_env, ptr %135, i32 0, i32 4
  store i32 %134, ptr %136, align 4
  %137 = load ptr, ptr %3, align 8
  %138 = getelementptr inbounds nuw %struct.SN_env, ptr %137, i32 0, i32 1
  %139 = load i32, ptr %138, align 8
  %140 = sub i32 %139, 1
  %141 = load ptr, ptr %3, align 8
  %142 = getelementptr inbounds nuw %struct.SN_env, ptr %141, i32 0, i32 3
  %143 = load i32, ptr %142, align 8
  %144 = icmp sle i32 %140, %143
  br i1 %144, label %158, label %145

145:                                              ; preds = %119
  %146 = load ptr, ptr %3, align 8
  %147 = getelementptr inbounds nuw %struct.SN_env, ptr %146, i32 0, i32 0
  %148 = load ptr, ptr %147, align 8
  %149 = load ptr, ptr %3, align 8
  %150 = getelementptr inbounds nuw %struct.SN_env, ptr %149, i32 0, i32 1
  %151 = load i32, ptr %150, align 8
  %152 = sub i32 %151, 1
  %153 = sext i32 %152 to i64
  %154 = getelementptr inbounds i8, ptr %148, i64 %153
  %155 = load i8, ptr %154, align 1
  %156 = zext i8 %155 to i32
  %157 = icmp ne i32 %156, 184
  br i1 %157, label %158, label %159

158:                                              ; preds = %145, %119
  store i32 0, ptr %2, align 4
  store i32 1, ptr %6, align 4
  br label %184

159:                                              ; preds = %145
  %160 = load ptr, ptr %3, align 8
  %161 = call i32 @find_among_b(ptr noundef %160, ptr noundef @a_49, i32 noundef 5)
  %162 = icmp ne i32 %161, 0
  br i1 %162, label %164, label %163

163:                                              ; preds = %159
  store i32 0, ptr %2, align 4
  store i32 1, ptr %6, align 4
  br label %184

164:                                              ; preds = %159
  %165 = load ptr, ptr %3, align 8
  %166 = getelementptr inbounds nuw %struct.SN_env, ptr %165, i32 0, i32 1
  %167 = load i32, ptr %166, align 8
  %168 = load ptr, ptr %3, align 8
  %169 = getelementptr inbounds nuw %struct.SN_env, ptr %168, i32 0, i32 3
  %170 = load i32, ptr %169, align 8
  %171 = icmp sgt i32 %167, %170
  br i1 %171, label %172, label %173

172:                                              ; preds = %164
  store i32 0, ptr %2, align 4
  store i32 1, ptr %6, align 4
  br label %184

173:                                              ; preds = %164
  call void @llvm.lifetime.start.p0(i64 4, ptr %10) #3
  %174 = load ptr, ptr %3, align 8
  %175 = call i32 @slice_from_s(ptr noundef %174, i32 noundef 4, ptr noundef @s_95)
  store i32 %175, ptr %10, align 4
  %176 = load i32, ptr %10, align 4
  %177 = icmp slt i32 %176, 0
  br i1 %177, label %178, label %180

178:                                              ; preds = %173
  %179 = load i32, ptr %10, align 4
  store i32 %179, ptr %2, align 4
  store i32 1, ptr %6, align 4
  br label %181

180:                                              ; preds = %173
  store i32 0, ptr %6, align 4
  br label %181

181:                                              ; preds = %180, %178
  call void @llvm.lifetime.end.p0(i64 4, ptr %10) #3
  %182 = load i32, ptr %6, align 4
  switch i32 %182, label %184 [
    i32 0, label %183
  ]

183:                                              ; preds = %181
  store i32 0, ptr %6, align 4
  br label %184

184:                                              ; preds = %118, %183, %181, %172, %163, %158, %116
  call void @llvm.lifetime.end.p0(i64 4, ptr %8) #3
  %185 = load i32, ptr %6, align 4
  switch i32 %185, label %190 [
    i32 0, label %186
    i32 1, label %188
    i32 4, label %187
  ]

186:                                              ; preds = %184
  br label %187

187:                                              ; preds = %186, %184
  store i32 1, ptr %2, align 4
  br label %188

188:                                              ; preds = %187, %184, %80, %66, %55
  %189 = load i32, ptr %2, align 4
  ret i32 %189

190:                                              ; preds = %184, %80, %55
  unreachable
}