; Function Attrs: nounwind uwtable
define internal fastcc i32 @r_step5g(ptr noundef initializes((24, 28)) %0) unnamed_addr #0 {
  %2 = getelementptr inbounds nuw i8, ptr %0, i64 12
  %3 = load i32, ptr %2, align 4
  %4 = getelementptr inbounds nuw i8, ptr %0, i64 8
  %5 = load i32, ptr %4, align 8
  %.neg = sub i32 %5, %3
  %6 = getelementptr inbounds nuw i8, ptr %0, i64 24
  store i32 %5, ptr %6, align 8
  %7 = tail call i32 @find_among_b(ptr noundef %0, ptr noundef nonnull @a_47, i32 noundef 3) #2
  %.not = icmp eq i32 %7, 0
  br i1 %.not, label %16, label %8

8:                                                ; preds = %1
  %9 = load i32, ptr %4, align 8
  %10 = getelementptr inbounds nuw i8, ptr %0, i64 20
  store i32 %9, ptr %10, align 4
  %11 = tail call i32 @slice_del(ptr noundef nonnull %0) #2
  %12 = icmp sgt i32 %11, -1
  br i1 %12, label %13, label %.thread88

13:                                               ; preds = %8
  %14 = getelementptr inbounds nuw i8, ptr %0, i64 40
  %15 = load ptr, ptr %14, align 8
  store i32 0, ptr %15, align 4
  br label %16

16:                                               ; preds = %13, %1
  %17 = load i32, ptr %2, align 4
  %18 = add i32 %17, %.neg
  store i32 %18, ptr %4, align 8
  store i32 %18, ptr %6, align 8
  %19 = tail call i32 @find_among_b(ptr noundef nonnull %0, ptr noundef nonnull @a_50, i32 noundef 3) #2
  %.not69 = icmp eq i32 %19, 0
  br i1 %.not69, label %.thread88, label %20

20:                                               ; preds = %16
  %21 = load i32, ptr %4, align 8
  %22 = getelementptr inbounds nuw i8, ptr %0, i64 20
  store i32 %21, ptr %22, align 4
  %23 = tail call i32 @slice_del(ptr noundef nonnull %0) #2
  %24 = icmp sgt i32 %23, -1
  br i1 %24, label %25, label %.thread88

25:                                               ; preds = %20
  %26 = getelementptr inbounds nuw i8, ptr %0, i64 40
  %27 = load ptr, ptr %26, align 8
  store i32 0, ptr %27, align 4
  %28 = load i32, ptr %2, align 4
  %29 = load i32, ptr %4, align 8
  store i32 %29, ptr %6, align 8
  store i32 %29, ptr %22, align 4
  %30 = tail call i32 @find_among_b(ptr noundef nonnull %0, ptr noundef nonnull @a_48, i32 noundef 6) #2
  %.not70 = icmp eq i32 %30, 0
  br i1 %.not70, label %34, label %31

31:                                               ; preds = %25
  %32 = tail call i32 @slice_from_s(ptr noundef nonnull %0, i32 noundef 4, ptr noundef nonnull @s_94) #2
  %33 = icmp sgt i32 %32, -1
  %spec.select = select i1 %33, i32 1, i32 %32
  br label %.thread88

34:                                               ; preds = %25
  %.neg71 = sub i32 %29, %28
  %35 = load i32, ptr %2, align 4
  %36 = add i32 %35, %.neg71
  store i32 %36, ptr %4, align 8
  store i32 %36, ptr %6, align 8
  store i32 %36, ptr %22, align 4
  %37 = add i32 %36, -1
  %38 = getelementptr inbounds nuw i8, ptr %0, i64 16
  %39 = load i32, ptr %38, align 8
  %.not72 = icmp sgt i32 %37, %39
  br i1 %.not72, label %40, label %.thread88

40:                                               ; preds = %34
  %41 = load ptr, ptr %0, align 8
  %42 = sext i32 %37 to i64
  %43 = getelementptr inbounds i8, ptr %41, i64 %42
  %44 = load i8, ptr %43, align 1
  %.not73 = icmp eq i8 %44, -72
  br i1 %.not73, label %45, label %.thread88

45:                                               ; preds = %40
  %46 = tail call i32 @find_among_b(ptr noundef nonnull %0, ptr noundef nonnull @a_49, i32 noundef 5) #2
  %.not74 = icmp eq i32 %46, 0
  br i1 %.not74, label %.thread88, label %47

47:                                               ; preds = %45
  %48 = load i32, ptr %4, align 8
  %49 = load i32, ptr %38, align 8
  %50 = icmp sgt i32 %48, %49
  br i1 %50, label %.thread88, label %51

51:                                               ; preds = %47
  %52 = tail call i32 @slice_from_s(ptr noundef nonnull %0, i32 noundef 4, ptr noundef nonnull @s_95) #2
  %.fr = freeze i32 %52
  %switch76 = icmp slt i32 %.fr, 0
  %spec.select93 = select i1 %switch76, i32 %.fr, i32 1
  br label %.thread88

.thread88:                                        ; preds = %51, %31, %47, %45, %34, %40, %8, %20, %16
  %.3 = phi i32 [ %23, %20 ], [ 0, %16 ], [ %11, %8 ], [ 0, %47 ], [ 0, %45 ], [ 0, %34 ], [ 0, %40 ], [ %spec.select, %31 ], [ %spec.select93, %51 ]
  ret i32 %.3
}